; Function Attrs: nofree norecurse nosync nounwind memory(argmem: readwrite) uwtable
define dso_local void @BZ2_hbAssignCodes(ptr noundef writeonly captures(none) %0, ptr noundef readonly captures(none) %1, i32 noundef %2, i32 noundef %3, i32 noundef %4) local_unnamed_addr #3 {
  %.not18 = icmp sle i32 %2, %3
  %6 = icmp sgt i32 %4, 0
  %or.cond = and i1 %.not18, %6
  br i1 %or.cond, label %.preheader.us.preheader, label %._crit_edge21

.preheader.us.preheader:                          ; preds = %5
  %wide.trip.count = zext nneg i32 %4 to i64
  br label %.preheader.us

.preheader.us:                                    ; preds = %.preheader.us.preheader, %._crit_edge.us
  %.01420.us = phi i32 [ %16, %._crit_edge.us ], [ 0, %.preheader.us.preheader ]
  %.01519.us = phi i32 [ %17, %._crit_edge.us ], [ %2, %.preheader.us.preheader ]
  br label %7

7:                                                ; preds = %.preheader.us, %15
  %indvars.iv = phi i64 [ 0, %.preheader.us ], [ %indvars.iv.next, %15 ]
  %.116.us = phi i32 [ %.01420.us, %.preheader.us ], [ %.2.us, %15 ]
  %8 = getelementptr inbounds nuw i8, ptr %1, i64 %indvars.iv
  %9 = load i8, ptr %8, align 1, !tbaa !15
  %10 = zext i8 %9 to i32
  %11 = icmp eq i32 %.01519.us, %10
  br i1 %11, label %12, label %15

12:                                               ; preds = %7
  %13 = getelementptr inbounds nuw i32, ptr %0, i64 %indvars.iv
  store i32 %.116.us, ptr %13, align 4, !tbaa !4
  %14 = add nsw i32 %.116.us, 1
  br label %15

15:                                               ; preds = %12, %7
  %.2.us = phi i32 [ %14, %12 ], [ %.116.us, %7 ]
  %indvars.iv.next = add nuw nsw i64 %indvars.iv, 1
  %exitcond.not = icmp eq i64 %indvars.iv.next, %wide.trip.count
  br i1 %exitcond.not, label %._crit_edge.us, label %7, !llvm.loop !18

._crit_edge.us:                                   ; preds = %15
  %16 = shl i32 %.2.us, 1
  %17 = add i32 %.01519.us, 1
  %exitcond24.not = icmp eq i32 %.01519.us, %3
  br i1 %exitcond24.not, label %._crit_edge21, label %.preheader.us, !llvm.loop !19

._crit_edge21:                                    ; preds = %._crit_edge.us, %5
  ret void
}